target datalayout = "e-m:e-p270:32:32-p271:32:32-p272:64:64-i64:64-i128:128-f80:128-n8:16:32:64-S128"
target triple = "x86_64-pc-linux-gnu"

%struct.cli_ctx_tag = type { ptr, ptr, ptr, ptr, ptr, ptr, ptr, i64, ptr, i32, i32, ptr, i32, i32, ptr, [16 x i8], ptr, ptr, ptr, ptr, ptr, ptr, %struct.timeval, i8, i8 }
%struct.timeval = type { i64, i64 }

@.str.3 = private unnamed_addr constant [21 x i8] c"Contents/content.hpf\00", align 1
@.str.4 = private unnamed_addr constant [22 x i8] c"in cli_process_ooxml\0A\00", align 1
@.str.5 = private unnamed_addr constant [12 x i8] c"version.xml\00", align 1
@.str.6 = private unnamed_addr constant [48 x i8] c"cli_process_ooxml: failed to find version.xml!\0A\00", align 1
@.str.7 = private unnamed_addr constant [27 x i8] c"OOXML_ERROR_NO_HWP_VERSION\00", align 1
@.str.8 = private unnamed_addr constant [57 x i8] c"cli_process_ooxml: failed to find Contents/content.hpf!\0A\00", align 1
@.str.9 = private unnamed_addr constant [27 x i8] c"OOXML_ERROR_NO_HWP_CONTENT\00", align 1
@.str.10 = private unnamed_addr constant [20 x i8] c"[Content_Types].xml\00", align 1
@.str.11 = private unnamed_addr constant [56 x i8] c"cli_process_ooxml: failed to find [Content_Types].xml!\0A\00", align 1
@.str.12 = private unnamed_addr constant [29 x i8] c"OOXML_ERROR_NO_CONTENT_TYPES\00", align 1
@.str.13 = private unnamed_addr constant [51 x i8] c"cli_process_ooxml: found [Content_Types].xml @ %x\0A\00", align 1

; Function Attrs: nounwind uwtable
define i32 @cli_process_ooxml(ptr noundef %0, i32 noundef %1) #0 {
  %3 = alloca i32, align 4
  %4 = alloca ptr, align 8
  %5 = alloca i32, align 4
  %6 = alloca i32, align 4
  %7 = alloca i32, align 4
  store ptr %0, ptr %4, align 8
  store i32 %1, ptr %5, align 4
  store i32 0, ptr %6, align 4
  store i32 0, ptr %7, align 4
  call void (ptr, ...) @cli_dbgmsg(ptr noundef @.str.4)
  %8 = load ptr, ptr %4, align 8
  %9 = icmp ne ptr %8, null
  br i1 %9, label %11, label %10

10:                                               ; preds = %2
  store i32 2, ptr %3, align 4
  br label %80

11:                                               ; preds = %2
  %12 = load i32, ptr %5, align 4
  %13 = icmp eq i32 %12, 551
  br i1 %13, label %14, label %57

14:                                               ; preds = %11
  %15 = load ptr, ptr %4, align 8
  %16 = call i32 @unzip_search_single(ptr noundef %15, ptr noundef @.str.5, i64 noundef 11, ptr noundef %6)
  store i32 %16, ptr %7, align 4
  %17 = load i32, ptr %7, align 4
  %18 = icmp eq i32 %17, 21
  br i1 %18, label %19, label %20

19:                                               ; preds = %14
  store i32 21, ptr %3, align 4
  br label %80

20:                                               ; preds = %14
  %21 = load i32, ptr %7, align 4
  %22 = icmp ne i32 %21, 1
  br i1 %22, label %23, label %28

23:                                               ; preds = %20
  call void (ptr, ...) @cli_dbgmsg(ptr noundef @.str.6)
  %24 = load ptr, ptr %4, align 8
  %25 = getelementptr inbounds %struct.cli_ctx_tag, ptr %24, i32 0, i32 21
  %26 = load ptr, ptr %25, align 8
  %27 = call i32 @cli_json_parse_error(ptr noundef %26, ptr noundef @.str.7)
  store i32 26, ptr %3, align 4
  br label %80

28:                                               ; preds = %20
  br label %29

29:                                               ; preds = %28
  %30 = load ptr, ptr %4, align 8
  %31 = load i32, ptr %6, align 4
  %32 = zext i32 %31 to i64
  %33 = call i32 @unzip_single_internal(ptr noundef %30, i64 noundef %32, ptr noundef @ooxml_hwp_cb)
  store i32 %33, ptr %7, align 4
  %34 = load i32, ptr %7, align 4
  %35 = icmp eq i32 %34, 0
  br i1 %35, label %36, label %56

36:                                               ; preds = %29
  %37 = load ptr, ptr %4, align 8
  %38 = call i32 @unzip_search_single(ptr noundef %37, ptr noundef @.str.3, i64 noundef 20, ptr noundef %6)
  store i32 %38, ptr %7, align 4
  %39 = load i32, ptr %7, align 4
  %40 = icmp eq i32 %39, 21
  br i1 %40, label %41, label %42

41:                                               ; preds = %36
  store i32 21, ptr %3, align 4
  br label %80

42:                                               ; preds = %36
  %43 = load i32, ptr %7, align 4
  %44 = icmp ne i32 %43, 1
  br i1 %44, label %45, label %50

45:                                               ; preds = %42
  call void (ptr, ...) @cli_dbgmsg(ptr noundef @.str.8)
  %46 = load ptr, ptr %4, align 8
  %47 = getelementptr inbounds %struct.cli_ctx_tag, ptr %46, i32 0, i32 21
  %48 = load ptr, ptr %47, align 8
  %49 = call i32 @cli_json_parse_error(ptr noundef %48, ptr noundef @.str.9)
  store i32 26, ptr %3, align 4
  br label %80

50:                                               ; preds = %42
  br label %51

51:                                               ; preds = %50
  %52 = load ptr, ptr %4, align 8
  %53 = load i32, ptr %6, align 4
  %54 = zext i32 %53 to i64
  %55 = call i32 @unzip_single_internal(ptr noundef %52, i64 noundef %54, ptr noundef @ooxml_hwp_cb)
  store i32 %55, ptr %7, align 4
  br label %56

56:                                               ; preds = %51, %29
  br label %78

57:                                               ; preds = %11
  %58 = load ptr, ptr %4, align 8
  %59 = call i32 @unzip_search_single(ptr noundef %58, ptr noundef @.str.10, i64 noundef 19, ptr noundef %6)
  store i32 %59, ptr %7, align 4
  %60 = load i32, ptr %7, align 4
  %61 = icmp eq i32 %60, 21
  br i1 %61, label %62, label %63

62:                                               ; preds = %57
  store i32 21, ptr %3, align 4
  br label %80

63:                                               ; preds = %57
  %64 = load i32, ptr %7, align 4
  %65 = icmp ne i32 %64, 1
  br i1 %65, label %66, label %71

66:                                               ; preds = %63
  call void (ptr, ...) @cli_dbgmsg(ptr noundef @.str.11)
  %67 = load ptr, ptr %4, align 8
  %68 = getelementptr inbounds %struct.cli_ctx_tag, ptr %67, i32 0, i32 21
  %69 = load ptr, ptr %68, align 8
  %70 = call i32 @cli_json_parse_error(ptr noundef %69, ptr noundef @.str.12)
  store i32 26, ptr %3, align 4
  br label %80

71:                                               ; preds = %63
  br label %72

72:                                               ; preds = %71
  %73 = load i32, ptr %6, align 4
  call void (ptr, ...) @cli_dbgmsg(ptr noundef @.str.13, i32 noundef %73)
  %74 = load ptr, ptr %4, align 8
  %75 = load i32, ptr %6, align 4
  %76 = zext i32 %75 to i64
  %77 = call i32 @unzip_single_internal(ptr noundef %74, i64 noundef %76, ptr noundef @ooxml_content_cb)
  store i32 %77, ptr %7, align 4
  br label %78

78:                                               ; preds = %72, %56
  %79 = load i32, ptr %7, align 4
  store i32 %79, ptr %3, align 4
  br label %80

80:                                               ; preds = %78, %66, %62, %45, %41, %23, %19, %10
  %81 = load i32, ptr %3, align 4
  ret i32 %81
}