; Function Attrs: nounwind uwtable
define i32 @cli_process_ooxml(ptr noundef %0, i32 noundef %1) local_unnamed_addr #0 {
  %3 = alloca i32, align 4
  store i32 0, ptr %3, align 4
  tail call void (ptr, ...) @cli_dbgmsg(ptr noundef nonnull @.str.4) #6
  %.not = icmp eq ptr %0, null
  br i1 %.not, label %38, label %4

4:                                                ; preds = %2
  %5 = icmp eq i32 %1, 551
  br i1 %5, label %6, label %27

6:                                                ; preds = %4
  %7 = call i32 @unzip_search_single(ptr noundef nonnull %0, ptr noundef nonnull @.str.5, i64 noundef 11, ptr noundef nonnull %3) #6
  switch i32 %7, label %8 [
    i32 21, label %38
    i32 1, label %12
  ]

8:                                                ; preds = %6
  call void (ptr, ...) @cli_dbgmsg(ptr noundef nonnull @.str.6) #6
  %9 = getelementptr inbounds i8, ptr %0, i64 160
  %10 = load ptr, ptr %9, align 8
  %11 = call i32 @cli_json_parse_error(ptr noundef %10, ptr noundef nonnull @.str.7) #6
  br label %38

12:                                               ; preds = %6
  %13 = load i32, ptr %3, align 4
  %14 = zext i32 %13 to i64
  %15 = call i32 @unzip_single_internal(ptr noundef nonnull %0, i64 noundef %14, ptr noundef nonnull @ooxml_hwp_cb) #6
  %16 = icmp eq i32 %15, 0
  br i1 %16, label %17, label %38

17:                                               ; preds = %12
  %18 = call i32 @unzip_search_single(ptr noundef nonnull %0, ptr noundef nonnull @.str.3, i64 noundef 20, ptr noundef nonnull %3) #6
  switch i32 %18, label %19 [
    i32 21, label %38
    i32 1, label %23
  ]

19:                                               ; preds = %17
  call void (ptr, ...) @cli_dbgmsg(ptr noundef nonnull @.str.8) #6
  %20 = getelementptr inbounds i8, ptr %0, i64 160
  %21 = load ptr, ptr %20, align 8
  %22 = call i32 @cli_json_parse_error(ptr noundef %21, ptr noundef nonnull @.str.9) #6
  br label %38

23:                                               ; preds = %17
  %24 = load i32, ptr %3, align 4
  %25 = zext i32 %24 to i64
  %26 = call i32 @unzip_single_internal(ptr noundef nonnull %0, i64 noundef %25, ptr noundef nonnull @ooxml_hwp_cb) #6
  br label %38

27:                                               ; preds = %4
  %28 = call i32 @unzip_search_single(ptr noundef nonnull %0, ptr noundef nonnull @.str.10, i64 noundef 19, ptr noundef nonnull %3) #6
  switch i32 %28, label %29 [
    i32 21, label %38
    i32 1, label %33
  ]

29:                                               ; preds = %27
  call void (ptr, ...) @cli_dbgmsg(ptr noundef nonnull @.str.11) #6
  %30 = getelementptr inbounds i8, ptr %0, i64 160
  %31 = load ptr, ptr %30, align 8
  %32 = call i32 @cli_json_parse_error(ptr noundef %31, ptr noundef nonnull @.str.12) #6
  br label %38

33:                                               ; preds = %27
  %34 = load i32, ptr %3, align 4
  call void (ptr, ...) @cli_dbgmsg(ptr noundef nonnull @.str.13, i32 noundef %34) #6
  %35 = load i32, ptr %3, align 4
  %36 = zext i32 %35 to i64
  %37 = call i32 @unzip_single_internal(ptr noundef nonnull %0, i64 noundef %36, ptr noundef nonnull @ooxml_content_cb) #6
  br label %38

38:                                               ; preds = %33, %23, %12, %27, %17, %6, %2, %29, %19, %8
  %.019 = phi i32 [ 26, %8 ], [ 26, %19 ], [ 26, %29 ], [ 2, %2 ], [ %7, %6 ], [ %18, %17 ], [ %28, %27 ], [ %26, %23 ], [ %15, %12 ], [ %37, %33 ]
  ret i32 %.019
}